	.file	"dwarf-reg-var-test.c"
	.text
.Ltext0:
	.section	.text.startup,"ax",@progbits
	.p2align 4,,15
	.globl	main
	.type	main, @function
main:
.LFB0:
	.file 1 "dwarf-reg-var-test.c"
	.loc 1 7 0
	.cfi_startproc
.LVL0:
	pushq	%rbx
	.cfi_def_cfa_offset 16
	.cfi_offset 3, -16
	subq	$64, %rsp
	.cfi_def_cfa_offset 80
	.loc 1 9 0
	leaq	16(%rsp), %rbx
	.loc 1 7 0
	movq	%fs:40, %rax
	movq	%rax, 56(%rsp)
	xorl	%eax, %eax
	.loc 1 9 0
	movq	%rbx, %rdi
.LVL1:
	call	use@PLT
.LVL2:
.LBB2:
	.loc 1 13 0
	leaq	40(%rbx), %rdx
.LBE2:
	.loc 1 9 0
	xorl	%eax, %eax
	.loc 1 11 0
	movq	%rbx, %rdi
.LVL3:
	.p2align 4,,10
	.p2align 3
.L2:
.LBB3:
	.loc 1 14 0 discriminator 3
	addq	$4, %rdi
.LVL4:
	addl	-4(%rdi), %eax
	.loc 1 13 0 discriminator 3
	cmpq	%rdx, %rdi
	jne	.L2
.LBE3:
	.loc 1 17 0
	leaq	12(%rsp), %rdi
.LVL5:
	movl	%eax, 12(%rsp)
	call	use@PLT
.LVL6:
	.loc 1 19 0
	xorl	%eax, %eax
	movq	56(%rsp), %rcx
	xorq	%fs:40, %rcx
	jne	.L7
	addq	$64, %rsp
	.cfi_remember_state
	.cfi_def_cfa_offset 16
	popq	%rbx
	.cfi_def_cfa_offset 8
	ret
.L7:
	.cfi_restore_state
	call	__stack_chk_fail@PLT
.LVL7:
	.cfi_endproc
.LFE0:
	.size	main, .-main
	.text
.Letext0:
	.section	.note.GNU-stack,"",@progbits
